; Function Attrs: mustprogress uwtable
define void @_ZNK10open_spiel10algorithms9ISMCTSBot11GetStateKeyB5cxx11ERKNS_5StateE(ptr dead_on_unwind noalias writable sret(%"struct.std::pair") align 8 %0, ptr nocapture noundef nonnull readonly align 8 dereferenceable(5176) %1, ptr noundef nonnull align 8 dereferenceable(60) %2) local_unnamed_addr #4 align 2 personality ptr @__gxx_personality_v0 {
  %4 = alloca %"class.std::__cxx11::basic_string", align 8
  %5 = alloca %"class.std::__cxx11::basic_string", align 8
  %6 = getelementptr inbounds nuw i8, ptr %1, i64 5132
  %7 = load i8, ptr %6, align 4
  %8 = trunc i8 %7 to i1
  %9 = load ptr, ptr %2, align 8
  %10 = getelementptr inbounds i8, ptr %9, i64 16
  %11 = load ptr, ptr %10, align 8
  %12 = tail call noundef i32 %11(ptr noundef nonnull align 8 dereferenceable(60) %2)
  %13 = load ptr, ptr %2, align 8, !noalias !11
  %14 = getelementptr inbounds i8, ptr %13, i64 16
  %15 = load ptr, ptr %14, align 8, !noalias !11
  %16 = tail call noundef i32 %15(ptr noundef nonnull align 8 dereferenceable(60) %2), !noalias !11
  %17 = load ptr, ptr %2, align 8, !noalias !11
  %18 = getelementptr inbounds nuw i8, ptr %0, i64 8
  %. = select i1 %8, i64 176, i64 152
  %.11 = select i1 %8, ptr %4, ptr %5
  %19 = getelementptr inbounds i8, ptr %17, i64 %.
  %20 = load ptr, ptr %19, align 8, !noalias !11
  call void %20(ptr dead_on_unwind nonnull writable sret(%"class.std::__cxx11::basic_string") align 8 %.11, ptr noundef nonnull align 8 dereferenceable(60) %2, i32 noundef %16)
  store i32 %12, ptr %0, align 8
  call void @_ZNSt7__cxx1112basic_stringIcSt11char_traitsIcESaIcEEC1EOS4_(ptr noundef nonnull align 8 dereferenceable(32) %18, ptr noundef nonnull align 8 dereferenceable(32) %.11) #25
  call void @_ZNSt7__cxx1112basic_stringIcSt11char_traitsIcESaIcEED1Ev(ptr noundef nonnull align 8 dereferenceable(32) %.11) #25
  ret void
}